; Function Attrs: mustprogress nounwind uwtable
define hidden void @_ZN18G1HeapRegionTracer23send_region_type_changeEjN21G1HeapRegionTraceType4TypeES1_mm(i32 noundef %0, i32 noundef %1, i32 noundef %2, i64 noundef %3, i64 noundef %4) local_unnamed_addr #0 align 2 {
  %6 = alloca %class.EventG1HeapRegionTypeChange, align 8
  %7 = getelementptr inbounds i8, ptr %6, i64 8
  call void @llvm.memset.p0.i64(ptr noundef nonnull align 8 dereferenceable(11) %7, i8 0, i64 11, i1 false)
  %8 = load i8, ptr getelementptr inbounds (i8, ptr @_ZN15JfrEventSetting19_jvm_event_settingsE, i64 1841), align 1
  %.not.i.not = icmp eq i8 %8, 0
  br i1 %.not.i.not, label %_ZN8JfrEventI27EventG1HeapRegionTypeChangeE13should_commitEv.exit, label %9

9:                                                ; preds = %5
  %10 = getelementptr inbounds i8, ptr %6, i64 18
  %11 = getelementptr inbounds i8, ptr %6, i64 17
  %12 = tail call noundef i64 @_ZN33FastUnorderedElapsedCounterSource3nowEv() #7
  store i64 %12, ptr %6, align 8
  store i8 1, ptr %11, align 1
  store i8 1, ptr %10, align 2
  %13 = getelementptr inbounds i8, ptr %6, i64 20
  store i32 %0, ptr %13, align 4
  %14 = zext i32 %1 to i64
  %15 = getelementptr inbounds i8, ptr %6, i64 24
  store i64 %14, ptr %15, align 8
  %16 = zext i32 %2 to i64
  %17 = getelementptr inbounds i8, ptr %6, i64 32
  store i64 %16, ptr %17, align 8
  %18 = getelementptr inbounds i8, ptr %6, i64 40
  store i64 %3, ptr %18, align 8
  %19 = getelementptr inbounds i8, ptr %6, i64 48
  store i64 %4, ptr %19, align 8
  call void @_ZN8JfrEventI27EventG1HeapRegionTypeChangeE6commitEv(ptr noundef nonnull align 8 dereferenceable(19) %6)
  br label %_ZN8JfrEventI27EventG1HeapRegionTypeChangeE13should_commitEv.exit

_ZN8JfrEventI27EventG1HeapRegionTypeChangeE13should_commitEv.exit: ; preds = %5, %9
  ret void
}